target datalayout = "e-m:e-p270:32:32-p271:32:32-p272:64:64-i64:64-i128:128-f80:128-n8:16:32:64-S128"
target triple = "x86_64-pc-linux-gnu"

%struct.GCRef = type { i64 }
%struct.lua_State = type { %struct.GCRef, i8, i8, i8, i8, %struct.MRef, %struct.GCRef, ptr, ptr, %struct.MRef, %struct.MRef, %struct.GCRef, %struct.GCRef, ptr, i32 }
%struct.MRef = type { i64 }
%union.TValue = type { i64 }
%struct.global_State = type { ptr, ptr, %struct.GCState, %struct.GCstr, i8, i8, i8, i8, %struct.StrInternState, i32, %struct.GCRef, %struct.SBuf, %union.TValue, %union.TValue, %struct.Node, %union.TValue, %struct.GCupval, i32, i32, ptr, ptr, ptr, i32, i32, %struct.GCRef, %struct.MRef, %struct.MRef, %struct.PRNGState, [39 x %struct.GCRef] }
%struct.GCState = type { i64, i64, i8, i8, i8, i8, i32, %struct.GCRef, %struct.MRef, %struct.GCRef, %struct.GCRef, %struct.GCRef, %struct.GCRef, i64, i64, i32, i32, %struct.MRef }
%struct.GCstr = type { %struct.GCRef, i8, i8, i8, i8, i32, i32, i32 }
%struct.StrInternState = type { ptr, i32, i32, i32, i8, i8, i8, i8, i64 }
%struct.SBuf = type { ptr, ptr, ptr, %struct.MRef }
%struct.Node = type { %union.TValue, %union.TValue, %struct.MRef }
%struct.GCupval = type { %struct.GCRef, i8, i8, i8, i8, %union.anon, %struct.MRef, i32 }
%union.anon = type { %struct.anon.1 }
%struct.anon.1 = type { %struct.GCRef, %struct.GCRef }
%struct.PRNGState = type { [4 x i64] }
%struct.GCfuncC = type { %struct.GCRef, i8, i8, i8, i8, %struct.GCRef, %struct.GCRef, %struct.MRef, ptr, [1 x %union.TValue] }
%struct.GCfuncL = type { %struct.GCRef, i8, i8, i8, i8, %struct.GCRef, %struct.GCRef, %struct.MRef, [1 x %struct.GCRef] }
%struct.GCproto = type { %struct.GCRef, i8, i8, i8, i8, i32, i32, %struct.GCRef, %struct.MRef, %struct.MRef, i32, i32, i32, i8, i8, i16, %struct.GCRef, i32, i32, %struct.MRef, %struct.MRef, %struct.MRef }
%struct.__va_list_tag = type { i32, i32, ptr, ptr }

@lj_err_allmsg = hidden global ptr @.str, align 8

; Function Attrs: noinline noreturn nounwind uwtable
define internal void @err_msgv(ptr noundef %0, i32 noundef %1, ...) #6 {
  %3 = alloca ptr, align 8
  %4 = alloca i32, align 4
  %5 = alloca ptr, align 8
  %6 = alloca [1 x %struct.__va_list_tag], align 16
  %7 = alloca ptr, align 8
  store ptr %0, ptr %3, align 8, !tbaa !18
  store i32 %1, ptr %4, align 4, !tbaa !4
  call void @llvm.lifetime.start.p0(i64 8, ptr %5) #15
  call void @llvm.lifetime.start.p0(i64 24, ptr %6) #15
  %8 = getelementptr inbounds [1 x %struct.__va_list_tag], ptr %6, i64 0, i64 0
  call void @llvm.va_start.p0(ptr %8)
  call void @llvm.lifetime.start.p0(i64 8, ptr %7) #15
  %9 = load ptr, ptr %3, align 8, !tbaa !18
  %10 = getelementptr inbounds nuw %struct.lua_State, ptr %9, i32 0, i32 5
  %11 = getelementptr inbounds nuw %struct.MRef, ptr %10, i32 0, i32 0
  %12 = load i64, ptr %11, align 8, !tbaa !29
  %13 = inttoptr i64 %12 to ptr
  %14 = getelementptr inbounds nuw %struct.global_State, ptr %13, i32 0, i32 25
  %15 = getelementptr inbounds nuw %struct.MRef, ptr %14, i32 0, i32 0
  %16 = load i64, ptr %15, align 8, !tbaa !70
  %17 = inttoptr i64 %16 to ptr
  store ptr %17, ptr %7, align 8, !tbaa !25
  %18 = load ptr, ptr %7, align 8, !tbaa !25
  %19 = icmp ne ptr %18, null
  br i1 %19, label %20, label %24

20:                                               ; preds = %2
  %21 = load ptr, ptr %7, align 8, !tbaa !25
  %22 = load ptr, ptr %3, align 8, !tbaa !18
  %23 = getelementptr inbounds nuw %struct.lua_State, ptr %22, i32 0, i32 7
  store ptr %21, ptr %23, align 8, !tbaa !24
  br label %24

24:                                               ; preds = %20, %2
  call void @llvm.lifetime.end.p0(i64 8, ptr %7) #15
  %25 = load ptr, ptr %3, align 8, !tbaa !18
  %26 = getelementptr inbounds nuw %struct.lua_State, ptr %25, i32 0, i32 7
  %27 = load ptr, ptr %26, align 8, !tbaa !24
  %28 = getelementptr inbounds %union.TValue, ptr %27, i64 -2
  %29 = getelementptr inbounds nuw %struct.GCRef, ptr %28, i32 0, i32 0
  %30 = load i64, ptr %29, align 8, !tbaa !28
  %31 = and i64 %30, 140737488355327
  %32 = inttoptr i64 %31 to ptr
  %33 = getelementptr inbounds nuw %struct.GCfuncC, ptr %32, i32 0, i32 3
  %34 = load i8, ptr %33, align 2, !tbaa !28
  %35 = zext i8 %34 to i32
  %36 = icmp eq i32 %35, 0
  br i1 %36, label %37, label %61

37:                                               ; preds = %24
  %38 = load ptr, ptr %3, align 8, !tbaa !18
  %39 = getelementptr inbounds nuw %struct.lua_State, ptr %38, i32 0, i32 7
  %40 = load ptr, ptr %39, align 8, !tbaa !24
  %41 = load ptr, ptr %3, align 8, !tbaa !18
  %42 = getelementptr inbounds nuw %struct.lua_State, ptr %41, i32 0, i32 7
  %43 = load ptr, ptr %42, align 8, !tbaa !24
  %44 = getelementptr inbounds %union.TValue, ptr %43, i64 -2
  %45 = getelementptr inbounds nuw %struct.GCRef, ptr %44, i32 0, i32 0
  %46 = load i64, ptr %45, align 8, !tbaa !28
  %47 = and i64 %46, 140737488355327
  %48 = inttoptr i64 %47 to ptr
  %49 = getelementptr inbounds nuw %struct.GCfuncL, ptr %48, i32 0, i32 7
  %50 = getelementptr inbounds nuw %struct.MRef, ptr %49, i32 0, i32 0
  %51 = load i64, ptr %50, align 8, !tbaa !28
  %52 = inttoptr i64 %51 to ptr
  %53 = getelementptr inbounds i8, ptr %52, i64 -104
  %54 = getelementptr inbounds nuw %struct.GCproto, ptr %53, i32 0, i32 4
  %55 = load i8, ptr %54, align 1, !tbaa !71
  %56 = zext i8 %55 to i32
  %57 = sext i32 %56 to i64
  %58 = getelementptr inbounds %union.TValue, ptr %40, i64 %57
  %59 = load ptr, ptr %3, align 8, !tbaa !18
  %60 = getelementptr inbounds nuw %struct.lua_State, ptr %59, i32 0, i32 8
  store ptr %58, ptr %60, align 8, !tbaa !20
  br label %61

61:                                               ; preds = %37, %24
  %62 = load ptr, ptr %3, align 8, !tbaa !18
  %63 = load ptr, ptr @lj_err_allmsg, align 8, !tbaa !50
  %64 = load i32, ptr %4, align 4, !tbaa !4
  %65 = sext i32 %64 to i64
  %66 = getelementptr inbounds i8, ptr %63, i64 %65
  %67 = getelementptr inbounds [1 x %struct.__va_list_tag], ptr %6, i64 0, i64 0
  %68 = call ptr @lj_strfmt_pushvf(ptr noundef %62, ptr noundef %66, ptr noundef %67)
  store ptr %68, ptr %5, align 8, !tbaa !50
  %69 = getelementptr inbounds [1 x %struct.__va_list_tag], ptr %6, i64 0, i64 0
  call void @llvm.va_end.p0(ptr %69)
  %70 = load ptr, ptr %3, align 8, !tbaa !18
  %71 = load ptr, ptr %5, align 8, !tbaa !50
  %72 = load ptr, ptr %3, align 8, !tbaa !18
  %73 = getelementptr inbounds nuw %struct.lua_State, ptr %72, i32 0, i32 7
  %74 = load ptr, ptr %73, align 8, !tbaa !24
  %75 = getelementptr inbounds %union.TValue, ptr %74, i64 -1
  call void @lj_debug_addloc(ptr noundef %70, ptr noundef %71, ptr noundef %75, ptr noundef null)
  %76 = load ptr, ptr %3, align 8, !tbaa !18
  call void @lj_err_run(ptr noundef %76) #18
  unreachable
}