; Function Attrs: noinline noreturn nounwind uwtable
define internal void @err_msgv(ptr noundef %0, i32 noundef %1, ...) unnamed_addr #5 {
  %3 = alloca [1 x %struct.__va_list_tag], align 16
  call void @llvm.lifetime.start.p0(i64 24, ptr nonnull %3) #15
  call void @llvm.va_start.p0(ptr nonnull %3)
  %4 = getelementptr inbounds nuw i8, ptr %0, i64 16
  %5 = load i64, ptr %4, align 8, !tbaa !21
  %6 = inttoptr i64 %5 to ptr
  %7 = getelementptr inbounds nuw i8, ptr %6, i64 376
  %8 = load i64, ptr %7, align 8, !tbaa !59
  %.not = icmp eq i64 %8, 0
  br i1 %.not, label %._crit_edge, label %9

._crit_edge:                                      ; preds = %2
  %.phi.trans.insert = getelementptr inbounds nuw i8, ptr %0, i64 32
  %.pre = load ptr, ptr %.phi.trans.insert, align 8, !tbaa !15
  br label %12

9:                                                ; preds = %2
  %10 = inttoptr i64 %8 to ptr
  %11 = getelementptr inbounds nuw i8, ptr %0, i64 32
  store ptr %10, ptr %11, align 8, !tbaa !15
  br label %12

12:                                               ; preds = %._crit_edge, %9
  %13 = phi ptr [ %.pre, %._crit_edge ], [ %10, %9 ]
  %14 = getelementptr inbounds i8, ptr %13, i64 -16
  %15 = load i64, ptr %14, align 8, !tbaa !18
  %16 = and i64 %15, 140737488355327
  %17 = inttoptr i64 %16 to ptr
  %18 = getelementptr inbounds nuw i8, ptr %17, i64 10
  %19 = load i8, ptr %18, align 2, !tbaa !18
  %20 = icmp eq i8 %19, 0
  br i1 %20, label %21, label %30

21:                                               ; preds = %12
  %22 = getelementptr inbounds nuw i8, ptr %17, i64 32
  %23 = load i64, ptr %22, align 8, !tbaa !18
  %24 = inttoptr i64 %23 to ptr
  %25 = getelementptr inbounds i8, ptr %24, i64 -93
  %26 = load i8, ptr %25, align 1, !tbaa !60
  %27 = zext i8 %26 to i64
  %28 = getelementptr inbounds nuw %union.TValue, ptr %13, i64 %27
  %29 = getelementptr inbounds nuw i8, ptr %0, i64 40
  store ptr %28, ptr %29, align 8, !tbaa !20
  br label %30

30:                                               ; preds = %21, %12
  %31 = getelementptr inbounds nuw i8, ptr %0, i64 32
  %32 = load ptr, ptr @lj_err_allmsg, align 8, !tbaa !36
  %33 = sext i32 %1 to i64
  %34 = getelementptr inbounds i8, ptr %32, i64 %33
  %35 = call ptr @lj_strfmt_pushvf(ptr noundef nonnull %0, ptr noundef %34, ptr noundef nonnull %3) #15
  call void @llvm.va_end.p0(ptr nonnull %3)
  %36 = load ptr, ptr %31, align 8, !tbaa !15
  %37 = getelementptr inbounds i8, ptr %36, i64 -8
  call void @lj_debug_addloc(ptr noundef nonnull %0, ptr noundef %35, ptr noundef nonnull %37, ptr noundef null) #15
  call void @lj_err_run(ptr noundef nonnull %0) #19
  unreachable
}